; Function Attrs: nounwind uwtable
define ptr @l___private_Lean_Elab_Print_0__Lean_Elab_Command_mkHeader_x27___boxed(ptr noundef %0, ptr noundef %1, ptr noundef %2, ptr noundef %3, ptr noundef %4, ptr noundef %5, ptr noundef %6, ptr noundef %7, ptr noundef %8) local_unnamed_addr #0 {
  %10 = ptrtoint ptr %4 to i64
  %11 = and i64 %10, 1
  %.not = icmp eq i64 %11, 0
  br i1 %.not, label %12, label %lean_dec.exit19

12:                                               ; preds = %9
  %13 = load i32, ptr %4, align 4, !tbaa !8
  %14 = icmp sgt i32 %13, 1
  br i1 %14, label %15, label %17, !prof !13

15:                                               ; preds = %12
  %16 = add nsw i32 %13, -1
  store i32 %16, ptr %4, align 4, !tbaa !8
  br label %lean_dec.exit19

17:                                               ; preds = %12
  %.not.i = icmp eq i32 %13, 0
  br i1 %.not.i, label %lean_dec.exit19, label %18

18:                                               ; preds = %17
  tail call void @lean_dec_ref_cold(ptr noundef nonnull %4) #5
  br label %lean_dec.exit19

lean_dec.exit19:                                  ; preds = %18, %17, %15, %9
  %19 = ptrtoint ptr %5 to i64
  %20 = lshr i64 %19, 1
  %21 = trunc i64 %20 to i8
  %22 = and i64 %19, 1
  %.not28 = icmp eq i64 %22, 0
  br i1 %.not28, label %23, label %lean_dec.exit18

23:                                               ; preds = %lean_dec.exit19
  %24 = load i32, ptr %5, align 4, !tbaa !8
  %25 = icmp sgt i32 %24, 1
  br i1 %25, label %26, label %28, !prof !13

26:                                               ; preds = %23
  %27 = add nsw i32 %24, -1
  store i32 %27, ptr %5, align 4, !tbaa !8
  br label %lean_dec.exit18

28:                                               ; preds = %23
  %.not.i20 = icmp eq i32 %24, 0
  br i1 %.not.i20, label %lean_dec.exit18, label %29

29:                                               ; preds = %28
  tail call void @lean_dec_ref_cold(ptr noundef nonnull %5) #5
  br label %lean_dec.exit18

lean_dec.exit18:                                  ; preds = %29, %28, %26, %lean_dec.exit19
  %30 = and i64 %10, 510
  %31 = icmp eq i64 %30, 0
  %..i = zext i1 %31 to i8
  %32 = tail call ptr @l___private_Lean_Elab_Print_0__Lean_Elab_Command_mkHeader(ptr noundef %0, ptr noundef %1, ptr noundef %2, ptr noundef %3, i8 noundef zeroext %..i, i8 noundef zeroext %21, ptr readnone poison, ptr noundef %7, ptr noundef %8)
  %33 = ptrtoint ptr %7 to i64
  %34 = and i64 %33, 1
  %.not29 = icmp eq i64 %34, 0
  br i1 %.not29, label %35, label %lean_dec.exit17

35:                                               ; preds = %lean_dec.exit18
  %36 = load i32, ptr %7, align 4, !tbaa !8
  %37 = icmp sgt i32 %36, 1
  br i1 %37, label %38, label %40, !prof !13

38:                                               ; preds = %35
  %39 = add nsw i32 %36, -1
  store i32 %39, ptr %7, align 4, !tbaa !8
  br label %lean_dec.exit17

40:                                               ; preds = %35
  %.not.i22 = icmp eq i32 %36, 0
  br i1 %.not.i22, label %lean_dec.exit17, label %41

41:                                               ; preds = %40
  tail call void @lean_dec_ref_cold(ptr noundef nonnull %7) #5
  br label %lean_dec.exit17

lean_dec.exit17:                                  ; preds = %41, %40, %38, %lean_dec.exit18
  %42 = ptrtoint ptr %6 to i64
  %43 = and i64 %42, 1
  %.not30 = icmp eq i64 %43, 0
  br i1 %.not30, label %44, label %lean_dec.exit16

44:                                               ; preds = %lean_dec.exit17
  %45 = load i32, ptr %6, align 4, !tbaa !8
  %46 = icmp sgt i32 %45, 1
  br i1 %46, label %47, label %49, !prof !13

47:                                               ; preds = %44
  %48 = add nsw i32 %45, -1
  store i32 %48, ptr %6, align 4, !tbaa !8
  br label %lean_dec.exit16

49:                                               ; preds = %44
  %.not.i24 = icmp eq i32 %45, 0
  br i1 %.not.i24, label %lean_dec.exit16, label %50

50:                                               ; preds = %49
  tail call void @lean_dec_ref_cold(ptr noundef nonnull %6) #5
  br label %lean_dec.exit16

lean_dec.exit16:                                  ; preds = %50, %49, %47, %lean_dec.exit17
  %51 = ptrtoint ptr %0 to i64
  %52 = and i64 %51, 1
  %.not31 = icmp eq i64 %52, 0
  br i1 %.not31, label %53, label %lean_dec.exit

53:                                               ; preds = %lean_dec.exit16
  %54 = load i32, ptr %0, align 4, !tbaa !8
  %55 = icmp sgt i32 %54, 1
  br i1 %55, label %56, label %58, !prof !13

56:                                               ; preds = %53
  %57 = add nsw i32 %54, -1
  store i32 %57, ptr %0, align 4, !tbaa !8
  br label %lean_dec.exit

58:                                               ; preds = %53
  %.not.i26 = icmp eq i32 %54, 0
  br i1 %.not.i26, label %lean_dec.exit, label %59

59:                                               ; preds = %58
  tail call void @lean_dec_ref_cold(ptr noundef nonnull %0) #5
  br label %lean_dec.exit

lean_dec.exit:                                    ; preds = %59, %58, %56, %lean_dec.exit16
  ret ptr %32
}